target datalayout = "e-m:e-p270:32:32-p271:32:32-p272:64:64-i64:64-i128:128-f80:128-n8:16:32:64-S128"
target triple = "x86_64-pc-linux-gnu"

%struct.pg_prng_state = type { i64, i64 }

@numTempTableSpaces = internal global i32 -1, align 4
@tempTableSpaces = internal global ptr null, align 8
@pg_global_prng_state = external global %struct.pg_prng_state, align 8
@nextTempTableSpace = internal global i32 0, align 4

; Function Attrs: nounwind uwtable
define dso_local void @SetTempTablespaces(ptr noundef %0, i32 noundef %1) #0 {
  %3 = alloca ptr, align 8
  %4 = alloca i32, align 4
  store ptr %0, ptr %3, align 8
  store i32 %1, ptr %4, align 4
  %5 = load ptr, ptr %3, align 8
  store ptr %5, ptr @tempTableSpaces, align 8
  %6 = load i32, ptr %4, align 4
  store i32 %6, ptr @numTempTableSpaces, align 4
  %7 = load i32, ptr %4, align 4
  %8 = icmp sgt i32 %7, 1
  br i1 %8, label %9, label %15

9:                                                ; preds = %2
  %10 = load i32, ptr %4, align 4
  %11 = sub i32 %10, 1
  %12 = sext i32 %11 to i64
  %13 = call i64 @pg_prng_uint64_range(ptr noundef @pg_global_prng_state, i64 noundef 0, i64 noundef %12)
  %14 = trunc i64 %13 to i32
  store i32 %14, ptr @nextTempTableSpace, align 4
  br label %16

15:                                               ; preds = %2
  store i32 0, ptr @nextTempTableSpace, align 4
  br label %16

16:                                               ; preds = %15, %9
  ret void
}