; Function Attrs: nounwind uwtable
define dso_local void @SetTempTablespaces(ptr noundef %0, i32 noundef %1) local_unnamed_addr #0 {
  store ptr %0, ptr @tempTableSpaces, align 8
  store i32 %1, ptr @numTempTableSpaces, align 4
  %3 = icmp sgt i32 %1, 1
  br i1 %3, label %4, label %9

4:                                                ; preds = %2
  %5 = add nsw i32 %1, -1
  %6 = zext nneg i32 %5 to i64
  %7 = tail call i64 @pg_prng_uint64_range(ptr noundef nonnull @pg_global_prng_state, i64 noundef 0, i64 noundef %6) #25
  %8 = trunc i64 %7 to i32
  br label %9

9:                                                ; preds = %2, %4
  %storemerge = phi i32 [ %8, %4 ], [ 0, %2 ]
  store i32 %storemerge, ptr @nextTempTableSpace, align 4
  ret void
}